target datalayout = "e-m:e-p270:32:32-p271:32:32-p272:64:64-i64:64-i128:128-f80:128-n8:16:32:64-S128"
target triple = "x86_64-pc-linux-gnu"

%struct.H5HF_block_iter_t = type { i8, ptr }
%struct.H5HF_block_loc_t = type { i32, i32, i32, ptr, ptr }

; Function Attrs: nounwind uwtable
define i32 @H5HF__man_iter_curr(ptr noundef %0, ptr noundef %1, ptr noundef %2, ptr noundef %3, ptr noundef %4) #0 {
  %6 = alloca ptr, align 8
  %7 = alloca ptr, align 8
  %8 = alloca ptr, align 8
  %9 = alloca ptr, align 8
  %10 = alloca ptr, align 8
  store ptr %0, ptr %6, align 8
  store ptr %1, ptr %7, align 8
  store ptr %2, ptr %8, align 8
  store ptr %3, ptr %9, align 8
  store ptr %4, ptr %10, align 8
  %11 = load ptr, ptr %7, align 8
  %12 = icmp ne ptr %11, null
  br i1 %12, label %13, label %20

13:                                               ; preds = %5
  %14 = load ptr, ptr %6, align 8
  %15 = getelementptr inbounds %struct.H5HF_block_iter_t, ptr %14, i32 0, i32 1
  %16 = load ptr, ptr %15, align 8
  %17 = getelementptr inbounds %struct.H5HF_block_loc_t, ptr %16, i32 0, i32 0
  %18 = load i32, ptr %17, align 8
  %19 = load ptr, ptr %7, align 8
  store i32 %18, ptr %19, align 4
  br label %20

20:                                               ; preds = %13, %5
  %21 = load ptr, ptr %8, align 8
  %22 = icmp ne ptr %21, null
  br i1 %22, label %23, label %30

23:                                               ; preds = %20
  %24 = load ptr, ptr %6, align 8
  %25 = getelementptr inbounds %struct.H5HF_block_iter_t, ptr %24, i32 0, i32 1
  %26 = load ptr, ptr %25, align 8
  %27 = getelementptr inbounds %struct.H5HF_block_loc_t, ptr %26, i32 0, i32 1
  %28 = load i32, ptr %27, align 4
  %29 = load ptr, ptr %8, align 8
  store i32 %28, ptr %29, align 4
  br label %30

30:                                               ; preds = %23, %20
  %31 = load ptr, ptr %9, align 8
  %32 = icmp ne ptr %31, null
  br i1 %32, label %33, label %40

33:                                               ; preds = %30
  %34 = load ptr, ptr %6, align 8
  %35 = getelementptr inbounds %struct.H5HF_block_iter_t, ptr %34, i32 0, i32 1
  %36 = load ptr, ptr %35, align 8
  %37 = getelementptr inbounds %struct.H5HF_block_loc_t, ptr %36, i32 0, i32 2
  %38 = load i32, ptr %37, align 8
  %39 = load ptr, ptr %9, align 8
  store i32 %38, ptr %39, align 4
  br label %40

40:                                               ; preds = %33, %30
  %41 = load ptr, ptr %10, align 8
  %42 = icmp ne ptr %41, null
  br i1 %42, label %43, label %50

43:                                               ; preds = %40
  %44 = load ptr, ptr %6, align 8
  %45 = getelementptr inbounds %struct.H5HF_block_iter_t, ptr %44, i32 0, i32 1
  %46 = load ptr, ptr %45, align 8
  %47 = getelementptr inbounds %struct.H5HF_block_loc_t, ptr %46, i32 0, i32 3
  %48 = load ptr, ptr %47, align 8
  %49 = load ptr, ptr %10, align 8
  store ptr %48, ptr %49, align 8
  br label %50

50:                                               ; preds = %43, %40
  ret i32 0
}