; Function Attrs: mustprogress nofree norecurse nosync nounwind willreturn memory(read, argmem: readwrite, inaccessiblemem: none) uwtable
define noundef i32 @H5HF__man_iter_curr(ptr nocapture noundef readonly %0, ptr noundef writeonly %1, ptr noundef writeonly %2, ptr noundef writeonly %3, ptr noundef writeonly %4) local_unnamed_addr #6 {
  %.not = icmp eq ptr %1, null
  br i1 %.not, label %10, label %6

6:                                                ; preds = %5
  %7 = getelementptr inbounds i8, ptr %0, i64 8
  %8 = load ptr, ptr %7, align 8
  %9 = load i32, ptr %8, align 8
  store i32 %9, ptr %1, align 4
  br label %10

10:                                               ; preds = %6, %5
  %.not15 = icmp eq ptr %2, null
  br i1 %.not15, label %16, label %11

11:                                               ; preds = %10
  %12 = getelementptr inbounds i8, ptr %0, i64 8
  %13 = load ptr, ptr %12, align 8
  %14 = getelementptr inbounds i8, ptr %13, i64 4
  %15 = load i32, ptr %14, align 4
  store i32 %15, ptr %2, align 4
  br label %16

16:                                               ; preds = %11, %10
  %.not16 = icmp eq ptr %3, null
  br i1 %.not16, label %22, label %17

17:                                               ; preds = %16
  %18 = getelementptr inbounds i8, ptr %0, i64 8
  %19 = load ptr, ptr %18, align 8
  %20 = getelementptr inbounds i8, ptr %19, i64 8
  %21 = load i32, ptr %20, align 8
  store i32 %21, ptr %3, align 4
  br label %22

22:                                               ; preds = %17, %16
  %.not17 = icmp eq ptr %4, null
  br i1 %.not17, label %28, label %23

23:                                               ; preds = %22
  %24 = getelementptr inbounds i8, ptr %0, i64 8
  %25 = load ptr, ptr %24, align 8
  %26 = getelementptr inbounds i8, ptr %25, i64 16
  %27 = load ptr, ptr %26, align 8
  store ptr %27, ptr %4, align 8
  br label %28

28:                                               ; preds = %23, %22
  ret i32 0
}